target datalayout = "e-m:e-p270:32:32-p271:32:32-p272:64:64-i64:64-i128:128-f80:128-n8:16:32:64-S128"
target triple = "x86_64-pc-linux-gnu"

%struct.gmx_ana_selmethod_t = type { ptr, i32, i32, i32, ptr, ptr, ptr, ptr, ptr, ptr, ptr, ptr, ptr, %struct.gmx_ana_selmethod_help_t }
%struct.gmx_ana_selmethod_help_t = type { ptr, ptr, i32, ptr }
%"class.std::__cxx11::basic_string" = type { %"struct.std::__cxx11::basic_string<char>::_Alloc_hider", i64, %union.anon }
%"struct.std::__cxx11::basic_string<char>::_Alloc_hider" = type { ptr }
%union.anon = type { i64, [8 x i8] }
%"class.std::shared_ptr.0" = type { %"class.std::__shared_ptr.1" }
%"class.std::__shared_ptr.1" = type { ptr, %"class.std::__shared_count" }
%"class.std::__shared_count" = type { ptr }
%"struct.gmx::SelectionLocation" = type { i32, i32 }
%"class.gmx::SelectionTreeElement" = type { i32, %struct.gmx_ana_selvalue_t, ptr, i32, %union.anon.6, ptr, ptr, %"class.std::shared_ptr.0", %"class.std::shared_ptr.0", %"class.std::__cxx11::basic_string", %"struct.gmx::SelectionLocation" }
%struct.gmx_ana_selvalue_t = type { i32, i32, %union.anon.5, i32 }
%union.anon.5 = type { ptr }
%union.anon.6 = type { %struct.anon.7 }
%struct.anon.7 = type { ptr, ptr, ptr, ptr }
%struct.gmx_ana_selparam_t = type { ptr, %struct.gmx_ana_selvalue_t, ptr, i32 }
%struct.gmx_ana_selcollection_t = type { %"class.gmx::PositionCalculationCollection", %"class.std::shared_ptr.0", %"class.std::vector.35", i32, ptr, ptr, %struct.gmx_ana_index_t, ptr, %"class.std::unique_ptr.40", %"class.std::unique_ptr.48" }
%"class.gmx::PositionCalculationCollection" = type { %"class.std::unique_ptr.27" }
%"class.std::unique_ptr.27" = type { %"struct.std::__uniq_ptr_data.28" }
%"struct.std::__uniq_ptr_data.28" = type { %"class.std::__uniq_ptr_impl.29" }
%"class.std::__uniq_ptr_impl.29" = type { %"class.std::tuple.30" }
%"class.std::tuple.30" = type { %"struct.std::_Tuple_impl.31" }
%"struct.std::_Tuple_impl.31" = type { %"struct.std::_Head_base.34" }
%"struct.std::_Head_base.34" = type { ptr }
%"class.std::vector.35" = type { %"struct.std::_Vector_base.36" }
%"struct.std::_Vector_base.36" = type { %"struct.std::_Vector_base<std::unique_ptr<gmx::internal::SelectionData>, std::allocator<std::unique_ptr<gmx::internal::SelectionData>>>::_Vector_impl" }
%"struct.std::_Vector_base<std::unique_ptr<gmx::internal::SelectionData>, std::allocator<std::unique_ptr<gmx::internal::SelectionData>>>::_Vector_impl" = type { %"struct.std::_Vector_base<std::unique_ptr<gmx::internal::SelectionData>, std::allocator<std::unique_ptr<gmx::internal::SelectionData>>>::_Vector_impl_data" }
%"struct.std::_Vector_base<std::unique_ptr<gmx::internal::SelectionData>, std::allocator<std::unique_ptr<gmx::internal::SelectionData>>>::_Vector_impl_data" = type { ptr, ptr, ptr }
%struct.gmx_ana_index_t = type { i32, ptr, i32 }
%"class.std::unique_ptr.40" = type { %"struct.std::__uniq_ptr_data.41" }
%"struct.std::__uniq_ptr_data.41" = type { %"class.std::__uniq_ptr_impl.42" }
%"class.std::__uniq_ptr_impl.42" = type { %"class.std::tuple.43" }
%"class.std::tuple.43" = type { %"struct.std::_Tuple_impl.44" }
%"struct.std::_Tuple_impl.44" = type { %"struct.std::_Head_base.47" }
%"struct.std::_Head_base.47" = type { ptr }
%"class.std::unique_ptr.48" = type { %"struct.std::__uniq_ptr_data.49" }
%"struct.std::__uniq_ptr_data.49" = type { %"class.std::__uniq_ptr_impl.50" }
%"class.std::__uniq_ptr_impl.50" = type { %"class.std::tuple.51" }
%"class.std::tuple.51" = type { %"struct.std::_Tuple_impl.52" }
%"struct.std::_Tuple_impl.52" = type { %"struct.std::_Head_base.55" }
%"struct.std::_Head_base.55" = type { ptr }

@.str.4 = private unnamed_addr constant [129 x i8] c"generated/home/dtcxzyw/WorkSpace/Projects/compilers/llvm-opt-benchmark/bench/gromacs/gromacs/src/gromacs/selection/parsetree.cpp\00", align 1
@.str.8 = private unnamed_addr constant [6 x i8] c"param\00", align 1

; Function Attrs: mustprogress nounwind uwtable
define linkonce_odr noundef ptr @_ZNKSt12__shared_ptrIN3gmx20SelectionTreeElementELN9__gnu_cxx12_Lock_policyE2EE3getEv(ptr noundef nonnull align 8 dereferenceable(16) %0) #4 comdat align 2 {
  %2 = alloca ptr, align 8
  store ptr %0, ptr %2, align 8, !tbaa !58
  %3 = load ptr, ptr %2, align 8
  %4 = getelementptr inbounds nuw %"class.std::__shared_ptr.1", ptr %3, i32 0, i32 0
  %5 = load ptr, ptr %4, align 8, !tbaa !60
  ret ptr %5
}

; Function Attrs: mustprogress nounwind uwtable
define linkonce_odr noundef ptr @_ZNKSt19__shared_ptr_accessIN3gmx20SelectionTreeElementELN9__gnu_cxx12_Lock_policyE2ELb0ELb0EE6_M_getEv(ptr noundef nonnull align 1 dereferenceable(1) %0) #4 comdat align 2 {
  %2 = alloca ptr, align 8
  store ptr %0, ptr %2, align 8, !tbaa !73
  %3 = load ptr, ptr %2, align 8
  %4 = call noundef ptr @_ZNKSt12__shared_ptrIN3gmx20SelectionTreeElementELN9__gnu_cxx12_Lock_policyE2EE3getEv(ptr noundef nonnull align 8 dereferenceable(16) %3) #20
  ret ptr %4
}

; Function Attrs: inlinehint mustprogress uwtable
define internal void @_ZL13gmx_snew_implI18gmx_ana_selparam_tEvPKcS2_iRPT_m(ptr noundef %0, ptr noundef %1, i32 noundef %2, ptr noundef nonnull align 8 dereferenceable(8) %3, i64 noundef %4) #10 {
  %6 = alloca ptr, align 8
  %7 = alloca ptr, align 8
  %8 = alloca i32, align 4
  %9 = alloca ptr, align 8
  %10 = alloca i64, align 8
  store ptr %0, ptr %6, align 8, !tbaa !30
  store ptr %1, ptr %7, align 8, !tbaa !30
  store i32 %2, ptr %8, align 4, !tbaa !55
  store ptr %3, ptr %9, align 8, !tbaa !221
  store i64 %4, ptr %10, align 8, !tbaa !29
  %11 = load ptr, ptr %6, align 8, !tbaa !30
  %12 = load ptr, ptr %7, align 8, !tbaa !30
  %13 = load i32, ptr %8, align 4, !tbaa !55
  %14 = load i64, ptr %10, align 8, !tbaa !29
  %15 = call noundef ptr @_Z11save_callocPKcS0_imm(ptr noundef %11, ptr noundef %12, i32 noundef %13, i64 noundef %14, i64 noundef 48)
  %16 = load ptr, ptr %9, align 8, !tbaa !221
  store ptr %15, ptr %16, align 8, !tbaa !211
  ret void
}

; Function Attrs: mustprogress nounwind uwtable
define linkonce_odr noundef ptr @_ZNKSt19__shared_ptr_accessIN3gmx20SelectionTreeElementELN9__gnu_cxx12_Lock_policyE2ELb0ELb0EEptEv(ptr noundef nonnull align 1 dereferenceable(1) %0) #4 comdat align 2 {
  %2 = alloca ptr, align 8
  store ptr %0, ptr %2, align 8, !tbaa !73
  %3 = load ptr, ptr %2, align 8
  %4 = call noundef ptr @_ZNKSt19__shared_ptr_accessIN3gmx20SelectionTreeElementELN9__gnu_cxx12_Lock_policyE2ELb0ELb0EE6_M_getEv(ptr noundef nonnull align 1 dereferenceable(1) %3) #20
  ret ptr %4
}

; Function Attrs: mustprogress uwtable
define void @_Z31_gmx_selelem_init_method_paramsRKSt10shared_ptrIN3gmx20SelectionTreeElementEEPv(ptr noundef nonnull align 8 dereferenceable(16) %0, ptr noundef %1) #0 {
  %3 = alloca ptr, align 8
  %4 = alloca ptr, align 8
  %5 = alloca i32, align 4
  %6 = alloca ptr, align 8
  %7 = alloca ptr, align 8
  %8 = alloca i32, align 4
  %9 = alloca ptr, align 8
  %10 = alloca i32, align 4
  %11 = alloca ptr, align 8
  store ptr %0, ptr %3, align 8, !tbaa !56
  store ptr %1, ptr %4, align 8, !tbaa !4
  call void @llvm.lifetime.start.p0(i64 4, ptr %5) #20
  call void @llvm.lifetime.start.p0(i64 8, ptr %6) #20
  call void @llvm.lifetime.start.p0(i64 8, ptr %7) #20
  call void @llvm.lifetime.start.p0(i64 4, ptr %8) #20
  call void @llvm.lifetime.start.p0(i64 8, ptr %9) #20
  %12 = load ptr, ptr %3, align 8, !tbaa !56
  %13 = call noundef ptr @_ZNKSt19__shared_ptr_accessIN3gmx20SelectionTreeElementELN9__gnu_cxx12_Lock_policyE2ELb0ELb0EEptEv(ptr noundef nonnull align 1 dereferenceable(1) %12) #20
  %14 = getelementptr inbounds nuw %"class.gmx::SelectionTreeElement", ptr %13, i32 0, i32 4
  %15 = getelementptr inbounds nuw %struct.anon.7, ptr %14, i32 0, i32 0
  %16 = load ptr, ptr %15, align 8, !tbaa !27
  %17 = getelementptr inbounds nuw %struct.gmx_ana_selmethod_t, ptr %16, i32 0, i32 3
  %18 = load i32, ptr %17, align 8, !tbaa !209
  store i32 %18, ptr %5, align 4, !tbaa !55
  %19 = load ptr, ptr %3, align 8, !tbaa !56
  %20 = call noundef ptr @_ZNKSt19__shared_ptr_accessIN3gmx20SelectionTreeElementELN9__gnu_cxx12_Lock_policyE2ELb0ELb0EEptEv(ptr noundef nonnull align 1 dereferenceable(1) %19) #20
  %21 = getelementptr inbounds nuw %"class.gmx::SelectionTreeElement", ptr %20, i32 0, i32 4
  %22 = getelementptr inbounds nuw %struct.anon.7, ptr %21, i32 0, i32 0
  %23 = load ptr, ptr %22, align 8, !tbaa !27
  %24 = getelementptr inbounds nuw %struct.gmx_ana_selmethod_t, ptr %23, i32 0, i32 4
  %25 = load ptr, ptr %24, align 8, !tbaa !210
  store ptr %25, ptr %6, align 8, !tbaa !211
  %26 = load i32, ptr %5, align 4, !tbaa !55
  %27 = sext i32 %26 to i64
  call void @_ZL13gmx_snew_implI18gmx_ana_selparam_tEvPKcS2_iRPT_m(ptr noundef @.str.8, ptr noundef @.str.4, i32 noundef 499, ptr noundef nonnull align 8 dereferenceable(8) %7, i64 noundef %27)
  %28 = load i32, ptr %5, align 4, !tbaa !55
  %29 = icmp sgt i32 %28, 0
  br i1 %29, label %30, label %36

30:                                               ; preds = %2
  %31 = load ptr, ptr %7, align 8, !tbaa !211
  %32 = load ptr, ptr %6, align 8, !tbaa !211
  %33 = load i32, ptr %5, align 4, !tbaa !55
  %34 = sext i32 %33 to i64
  %35 = mul i64 %34, 48
  call void @llvm.memcpy.p0.p0.i64(ptr align 8 %31, ptr align 8 %32, i64 %35, i1 false)
  br label %36

36:                                               ; preds = %30, %2
  store i32 0, ptr %8, align 4, !tbaa !55
  br label %37

37:                                               ; preds = %131, %36
  %38 = load i32, ptr %8, align 4, !tbaa !55
  %39 = load i32, ptr %5, align 4, !tbaa !55
  %40 = icmp slt i32 %38, %39
  br i1 %40, label %41, label %134

41:                                               ; preds = %37
  %42 = load ptr, ptr %7, align 8, !tbaa !211
  %43 = load i32, ptr %8, align 4, !tbaa !55
  %44 = sext i32 %43 to i64
  %45 = getelementptr inbounds %struct.gmx_ana_selparam_t, ptr %42, i64 %44
  %46 = getelementptr inbounds nuw %struct.gmx_ana_selparam_t, ptr %45, i32 0, i32 3
  %47 = load i32, ptr %46, align 8, !tbaa !212
  %48 = and i32 %47, -2
  store i32 %48, ptr %46, align 8, !tbaa !212
  %49 = load ptr, ptr %7, align 8, !tbaa !211
  %50 = load i32, ptr %8, align 4, !tbaa !55
  %51 = sext i32 %50 to i64
  %52 = getelementptr inbounds %struct.gmx_ana_selparam_t, ptr %49, i64 %51
  %53 = getelementptr inbounds nuw %struct.gmx_ana_selparam_t, ptr %52, i32 0, i32 1
  call void @_Z22_gmx_selvalue_setstoreP18gmx_ana_selvalue_tPv(ptr noundef %53, ptr noundef null)
  %54 = load ptr, ptr %7, align 8, !tbaa !211
  %55 = load i32, ptr %8, align 4, !tbaa !55
  %56 = sext i32 %55 to i64
  %57 = getelementptr inbounds %struct.gmx_ana_selparam_t, ptr %54, i64 %56
  %58 = getelementptr inbounds nuw %struct.gmx_ana_selparam_t, ptr %57, i32 0, i32 3
  %59 = load i32, ptr %58, align 8, !tbaa !212
  %60 = and i32 %59, 16
  %61 = icmp ne i32 %60, 0
  br i1 %61, label %62, label %69

62:                                               ; preds = %41
  %63 = load ptr, ptr %7, align 8, !tbaa !211
  %64 = load i32, ptr %8, align 4, !tbaa !55
  %65 = sext i32 %64 to i64
  %66 = getelementptr inbounds %struct.gmx_ana_selparam_t, ptr %63, i64 %65
  %67 = getelementptr inbounds nuw %struct.gmx_ana_selparam_t, ptr %66, i32 0, i32 1
  %68 = getelementptr inbounds nuw %struct.gmx_ana_selvalue_t, ptr %67, i32 0, i32 1
  store i32 -1, ptr %68, align 4, !tbaa !214
  br label %69

69:                                               ; preds = %62, %41
  %70 = load ptr, ptr %7, align 8, !tbaa !211
  %71 = load i32, ptr %8, align 4, !tbaa !55
  %72 = sext i32 %71 to i64
  %73 = getelementptr inbounds %struct.gmx_ana_selparam_t, ptr %70, i64 %72
  %74 = getelementptr inbounds nuw %struct.gmx_ana_selparam_t, ptr %73, i32 0, i32 3
  %75 = load i32, ptr %74, align 8, !tbaa !212
  %76 = and i32 %75, 128
  %77 = icmp ne i32 %76, 0
  br i1 %77, label %78, label %130

78:                                               ; preds = %69
  %79 = load ptr, ptr %6, align 8, !tbaa !211
  %80 = load i32, ptr %8, align 4, !tbaa !55
  %81 = sext i32 %80 to i64
  %82 = getelementptr inbounds %struct.gmx_ana_selparam_t, ptr %79, i64 %81
  %83 = getelementptr inbounds nuw %struct.gmx_ana_selparam_t, ptr %82, i32 0, i32 1
  %84 = getelementptr inbounds nuw %struct.gmx_ana_selvalue_t, ptr %83, i32 0, i32 2
  %85 = load ptr, ptr %84, align 8, !tbaa !27
  %86 = icmp ne ptr %85, null
  br i1 %86, label %87, label %130

87:                                               ; preds = %78
  call void @llvm.lifetime.start.p0(i64 4, ptr %10) #20
  store i32 1, ptr %10, align 4, !tbaa !55
  br label %88

88:                                               ; preds = %101, %87
  %89 = load ptr, ptr %6, align 8, !tbaa !211
  %90 = load i32, ptr %8, align 4, !tbaa !55
  %91 = sext i32 %90 to i64
  %92 = getelementptr inbounds %struct.gmx_ana_selparam_t, ptr %89, i64 %91
  %93 = getelementptr inbounds nuw %struct.gmx_ana_selparam_t, ptr %92, i32 0, i32 1
  %94 = getelementptr inbounds nuw %struct.gmx_ana_selvalue_t, ptr %93, i32 0, i32 2
  %95 = load ptr, ptr %94, align 8, !tbaa !27
  %96 = load i32, ptr %10, align 4, !tbaa !55
  %97 = sext i32 %96 to i64
  %98 = getelementptr inbounds ptr, ptr %95, i64 %97
  %99 = load ptr, ptr %98, align 8, !tbaa !30
  %100 = icmp ne ptr %99, null
  br i1 %100, label %101, label %104

101:                                              ; preds = %88
  %102 = load i32, ptr %10, align 4, !tbaa !55
  %103 = add nsw i32 %102, 1
  store i32 %103, ptr %10, align 4, !tbaa !55
  br label %88, !llvm.loop !215

104:                                              ; preds = %88
  %105 = load ptr, ptr %7, align 8, !tbaa !211
  %106 = load i32, ptr %8, align 4, !tbaa !55
  %107 = sext i32 %106 to i64
  %108 = getelementptr inbounds %struct.gmx_ana_selparam_t, ptr %105, i64 %107
  %109 = getelementptr inbounds nuw %struct.gmx_ana_selparam_t, ptr %108, i32 0, i32 1
  %110 = load i32, ptr %10, align 4, !tbaa !55
  %111 = add nsw i32 %110, 1
  call void @_Z21_gmx_selvalue_reserveP18gmx_ana_selvalue_ti(ptr noundef %109, i32 noundef %111)
  %112 = load ptr, ptr %7, align 8, !tbaa !211
  %113 = load i32, ptr %8, align 4, !tbaa !55
  %114 = sext i32 %113 to i64
  %115 = getelementptr inbounds %struct.gmx_ana_selparam_t, ptr %112, i64 %114
  %116 = getelementptr inbounds nuw %struct.gmx_ana_selparam_t, ptr %115, i32 0, i32 1
  %117 = getelementptr inbounds nuw %struct.gmx_ana_selvalue_t, ptr %116, i32 0, i32 2
  %118 = load ptr, ptr %117, align 8, !tbaa !27
  %119 = load ptr, ptr %6, align 8, !tbaa !211
  %120 = load i32, ptr %8, align 4, !tbaa !55
  %121 = sext i32 %120 to i64
  %122 = getelementptr inbounds %struct.gmx_ana_selparam_t, ptr %119, i64 %121
  %123 = getelementptr inbounds nuw %struct.gmx_ana_selparam_t, ptr %122, i32 0, i32 1
  %124 = getelementptr inbounds nuw %struct.gmx_ana_selvalue_t, ptr %123, i32 0, i32 2
  %125 = load ptr, ptr %124, align 8, !tbaa !27
  %126 = load i32, ptr %10, align 4, !tbaa !55
  %127 = add nsw i32 %126, 1
  %128 = sext i32 %127 to i64
  %129 = mul i64 %128, 8
  call void @llvm.memcpy.p0.p0.i64(ptr align 8 %118, ptr align 8 %125, i64 %129, i1 false)
  call void @llvm.lifetime.end.p0(i64 4, ptr %10) #20
  br label %130

130:                                              ; preds = %104, %78, %69
  br label %131

131:                                              ; preds = %130
  %132 = load i32, ptr %8, align 4, !tbaa !55
  %133 = add nsw i32 %132, 1
  store i32 %133, ptr %8, align 4, !tbaa !55
  br label %37, !llvm.loop !216

134:                                              ; preds = %37
  store ptr null, ptr %9, align 8, !tbaa !4
  %135 = load ptr, ptr %3, align 8, !tbaa !56
  %136 = call noundef ptr @_ZNKSt19__shared_ptr_accessIN3gmx20SelectionTreeElementELN9__gnu_cxx12_Lock_policyE2ELb0ELb0EEptEv(ptr noundef nonnull align 1 dereferenceable(1) %135) #20
  %137 = getelementptr inbounds nuw %"class.gmx::SelectionTreeElement", ptr %136, i32 0, i32 4
  %138 = getelementptr inbounds nuw %struct.anon.7, ptr %137, i32 0, i32 0
  %139 = load ptr, ptr %138, align 8, !tbaa !27
  %140 = getelementptr inbounds nuw %struct.gmx_ana_selmethod_t, ptr %139, i32 0, i32 5
  %141 = load ptr, ptr %140, align 8, !tbaa !217
  %142 = icmp ne ptr %141, null
  br i1 %142, label %143, label %154

143:                                              ; preds = %134
  %144 = load ptr, ptr %3, align 8, !tbaa !56
  %145 = call noundef ptr @_ZNKSt19__shared_ptr_accessIN3gmx20SelectionTreeElementELN9__gnu_cxx12_Lock_policyE2ELb0ELb0EEptEv(ptr noundef nonnull align 1 dereferenceable(1) %144) #20
  %146 = getelementptr inbounds nuw %"class.gmx::SelectionTreeElement", ptr %145, i32 0, i32 4
  %147 = getelementptr inbounds nuw %struct.anon.7, ptr %146, i32 0, i32 0
  %148 = load ptr, ptr %147, align 8, !tbaa !27
  %149 = getelementptr inbounds nuw %struct.gmx_ana_selmethod_t, ptr %148, i32 0, i32 5
  %150 = load ptr, ptr %149, align 8, !tbaa !217
  %151 = load i32, ptr %5, align 4, !tbaa !55
  %152 = load ptr, ptr %7, align 8, !tbaa !211
  %153 = call noundef ptr %150(i32 noundef %151, ptr noundef %152)
  store ptr %153, ptr %9, align 8, !tbaa !4
  br label %154

154:                                              ; preds = %143, %134
  %155 = load ptr, ptr %3, align 8, !tbaa !56
  %156 = call noundef ptr @_ZNKSt19__shared_ptr_accessIN3gmx20SelectionTreeElementELN9__gnu_cxx12_Lock_policyE2ELb0ELb0EEptEv(ptr noundef nonnull align 1 dereferenceable(1) %155) #20
  %157 = getelementptr inbounds nuw %"class.gmx::SelectionTreeElement", ptr %156, i32 0, i32 4
  %158 = getelementptr inbounds nuw %struct.anon.7, ptr %157, i32 0, i32 0
  %159 = load ptr, ptr %158, align 8, !tbaa !27
  %160 = getelementptr inbounds nuw %struct.gmx_ana_selmethod_t, ptr %159, i32 0, i32 6
  %161 = load ptr, ptr %160, align 8, !tbaa !218
  %162 = icmp ne ptr %161, null
  br i1 %162, label %163, label %176

163:                                              ; preds = %154
  call void @llvm.lifetime.start.p0(i64 8, ptr %11) #20
  %164 = load ptr, ptr %4, align 8, !tbaa !4
  %165 = call noundef ptr @_Z28_gmx_sel_lexer_selcollectionPv(ptr noundef %164)
  store ptr %165, ptr %11, align 8, !tbaa !219
  %166 = load ptr, ptr %3, align 8, !tbaa !56
  %167 = call noundef ptr @_ZNKSt19__shared_ptr_accessIN3gmx20SelectionTreeElementELN9__gnu_cxx12_Lock_policyE2ELb0ELb0EEptEv(ptr noundef nonnull align 1 dereferenceable(1) %166) #20
  %168 = getelementptr inbounds nuw %"class.gmx::SelectionTreeElement", ptr %167, i32 0, i32 4
  %169 = getelementptr inbounds nuw %struct.anon.7, ptr %168, i32 0, i32 0
  %170 = load ptr, ptr %169, align 8, !tbaa !27
  %171 = getelementptr inbounds nuw %struct.gmx_ana_selmethod_t, ptr %170, i32 0, i32 6
  %172 = load ptr, ptr %171, align 8, !tbaa !218
  %173 = load ptr, ptr %11, align 8, !tbaa !219
  %174 = getelementptr inbounds nuw %struct.gmx_ana_selcollection_t, ptr %173, i32 0, i32 0
  %175 = load ptr, ptr %9, align 8, !tbaa !4
  call void %172(ptr noundef %174, ptr noundef %175)
  call void @llvm.lifetime.end.p0(i64 8, ptr %11) #20
  br label %176

176:                                              ; preds = %163, %154
  %177 = load ptr, ptr %7, align 8, !tbaa !211
  %178 = load ptr, ptr %3, align 8, !tbaa !56
  %179 = call noundef ptr @_ZNKSt19__shared_ptr_accessIN3gmx20SelectionTreeElementELN9__gnu_cxx12_Lock_policyE2ELb0ELb0EEptEv(ptr noundef nonnull align 1 dereferenceable(1) %178) #20
  %180 = getelementptr inbounds nuw %"class.gmx::SelectionTreeElement", ptr %179, i32 0, i32 4
  %181 = getelementptr inbounds nuw %struct.anon.7, ptr %180, i32 0, i32 0
  %182 = load ptr, ptr %181, align 8, !tbaa !27
  %183 = getelementptr inbounds nuw %struct.gmx_ana_selmethod_t, ptr %182, i32 0, i32 4
  store ptr %177, ptr %183, align 8, !tbaa !210
  %184 = load ptr, ptr %9, align 8, !tbaa !4
  %185 = load ptr, ptr %3, align 8, !tbaa !56
  %186 = call noundef ptr @_ZNKSt19__shared_ptr_accessIN3gmx20SelectionTreeElementELN9__gnu_cxx12_Lock_policyE2ELb0ELb0EEptEv(ptr noundef nonnull align 1 dereferenceable(1) %185) #20
  %187 = getelementptr inbounds nuw %"class.gmx::SelectionTreeElement", ptr %186, i32 0, i32 4
  %188 = getelementptr inbounds nuw %struct.anon.7, ptr %187, i32 0, i32 1
  store ptr %184, ptr %188, align 8, !tbaa !27
  call void @llvm.lifetime.end.p0(i64 8, ptr %9) #20
  call void @llvm.lifetime.end.p0(i64 4, ptr %8) #20
  call void @llvm.lifetime.end.p0(i64 8, ptr %7) #20
  call void @llvm.lifetime.end.p0(i64 8, ptr %6) #20
  call void @llvm.lifetime.end.p0(i64 4, ptr %5) #20
  ret void
}